target datalayout = "e-m:e-p270:32:32-p271:32:32-p272:64:64-i64:64-i128:128-f80:128-n8:16:32:64-S128"
target triple = "x86_64-pc-linux-gnu"

%class.CPUInformationInterface = type { ptr }
%class.CPUInformation = type { i32, i32, i32, ptr, ptr }

; Function Attrs: mustprogress nounwind uwtable
define linkonce_odr hidden void @_ZN12CHeapObjBasedlEPv(ptr noundef %0) #1 comdat align 2 {
  %2 = alloca ptr, align 8
  store ptr %0, ptr %2, align 8
  %3 = load ptr, ptr %2, align 8
  call void @_Z8FreeHeapPv(ptr noundef %3)
  ret void
}

; Function Attrs: mustprogress nounwind uwtable
define linkonce_odr hidden void @_ZN8CHeapObjIL8MEMFLAGS9EEdlEPv(ptr noundef %0) #1 comdat align 2 {
  %2 = alloca ptr, align 8
  store ptr %0, ptr %2, align 8
  %3 = load ptr, ptr %2, align 8
  call void @_ZN12CHeapObjBasedlEPv(ptr noundef %3) #8
  ret void
}

; Function Attrs: mustprogress nounwind uwtable
define linkonce_odr hidden void @_ZN14CPUInformation19set_cpu_descriptionEPKc(ptr noundef nonnull align 8 dereferenceable(32) %0, ptr noundef %1) #1 comdat align 2 {
  %3 = alloca ptr, align 8
  %4 = alloca ptr, align 8
  store ptr %0, ptr %3, align 8
  store ptr %1, ptr %4, align 8
  %5 = load ptr, ptr %3, align 8
  %6 = load ptr, ptr %4, align 8
  %7 = getelementptr inbounds %class.CPUInformation, ptr %5, i32 0, i32 3
  store ptr %6, ptr %7, align 8
  ret void
}

; Function Attrs: mustprogress nounwind uwtable
define linkonce_odr hidden noundef ptr @_ZNK14CPUInformation15cpu_descriptionEv(ptr noundef nonnull align 8 dereferenceable(32) %0) #1 comdat align 2 {
  %2 = alloca ptr, align 8
  store ptr %0, ptr %2, align 8
  %3 = load ptr, ptr %2, align 8
  %4 = getelementptr inbounds %class.CPUInformation, ptr %3, i32 0, i32 3
  %5 = load ptr, ptr %4, align 8
  ret ptr %5
}

; Function Attrs: mustprogress nounwind uwtable
define linkonce_odr hidden void @_ZN14CPUInformation12set_cpu_nameEPKc(ptr noundef nonnull align 8 dereferenceable(32) %0, ptr noundef %1) #1 comdat align 2 {
  %3 = alloca ptr, align 8
  %4 = alloca ptr, align 8
  store ptr %0, ptr %3, align 8
  store ptr %1, ptr %4, align 8
  %5 = load ptr, ptr %3, align 8
  %6 = load ptr, ptr %4, align 8
  %7 = getelementptr inbounds %class.CPUInformation, ptr %5, i32 0, i32 4
  store ptr %6, ptr %7, align 8
  ret void
}

; Function Attrs: mustprogress nounwind uwtable
define linkonce_odr hidden noundef ptr @_ZNK14CPUInformation8cpu_nameEv(ptr noundef nonnull align 8 dereferenceable(32) %0) #1 comdat align 2 {
  %2 = alloca ptr, align 8
  store ptr %0, ptr %2, align 8
  %3 = load ptr, ptr %2, align 8
  %4 = getelementptr inbounds %class.CPUInformation, ptr %3, i32 0, i32 4
  %5 = load ptr, ptr %4, align 8
  ret ptr %5
}

; Function Attrs: mustprogress nounwind uwtable
define hidden void @_ZN23CPUInformationInterfaceD2Ev(ptr noundef nonnull align 8 dereferenceable(8) %0) unnamed_addr #1 align 2 {
  %2 = alloca ptr, align 8
  %3 = alloca ptr, align 8
  %4 = alloca ptr, align 8
  store ptr %0, ptr %2, align 8
  %5 = load ptr, ptr %2, align 8
  %6 = getelementptr inbounds %class.CPUInformationInterface, ptr %5, i32 0, i32 0
  %7 = load ptr, ptr %6, align 8
  %8 = icmp ne ptr %7, null
  br i1 %8, label %9, label %39

9:                                                ; preds = %1
  %10 = getelementptr inbounds %class.CPUInformationInterface, ptr %5, i32 0, i32 0
  %11 = load ptr, ptr %10, align 8
  %12 = call noundef ptr @_ZNK14CPUInformation8cpu_nameEv(ptr noundef nonnull align 8 dereferenceable(32) %11)
  %13 = icmp ne ptr %12, null
  br i1 %13, label %14, label %21

14:                                               ; preds = %9
  %15 = getelementptr inbounds %class.CPUInformationInterface, ptr %5, i32 0, i32 0
  %16 = load ptr, ptr %15, align 8
  %17 = call noundef ptr @_ZNK14CPUInformation8cpu_nameEv(ptr noundef nonnull align 8 dereferenceable(32) %16)
  store ptr %17, ptr %3, align 8
  %18 = load ptr, ptr %3, align 8
  call void @_Z8FreeHeapPv(ptr noundef %18)
  %19 = getelementptr inbounds %class.CPUInformationInterface, ptr %5, i32 0, i32 0
  %20 = load ptr, ptr %19, align 8
  call void @_ZN14CPUInformation12set_cpu_nameEPKc(ptr noundef nonnull align 8 dereferenceable(32) %20, ptr noundef null)
  br label %21

21:                                               ; preds = %14, %9
  %22 = getelementptr inbounds %class.CPUInformationInterface, ptr %5, i32 0, i32 0
  %23 = load ptr, ptr %22, align 8
  %24 = call noundef ptr @_ZNK14CPUInformation15cpu_descriptionEv(ptr noundef nonnull align 8 dereferenceable(32) %23)
  %25 = icmp ne ptr %24, null
  br i1 %25, label %26, label %33

26:                                               ; preds = %21
  %27 = getelementptr inbounds %class.CPUInformationInterface, ptr %5, i32 0, i32 0
  %28 = load ptr, ptr %27, align 8
  %29 = call noundef ptr @_ZNK14CPUInformation15cpu_descriptionEv(ptr noundef nonnull align 8 dereferenceable(32) %28)
  store ptr %29, ptr %4, align 8
  %30 = load ptr, ptr %4, align 8
  call void @_Z8FreeHeapPv(ptr noundef %30)
  %31 = getelementptr inbounds %class.CPUInformationInterface, ptr %5, i32 0, i32 0
  %32 = load ptr, ptr %31, align 8
  call void @_ZN14CPUInformation19set_cpu_descriptionEPKc(ptr noundef nonnull align 8 dereferenceable(32) %32, ptr noundef null)
  br label %33

33:                                               ; preds = %26, %21
  %34 = getelementptr inbounds %class.CPUInformationInterface, ptr %5, i32 0, i32 0
  %35 = load ptr, ptr %34, align 8
  %36 = icmp eq ptr %35, null
  br i1 %36, label %38, label %37

37:                                               ; preds = %33
  call void @_ZN8CHeapObjIL8MEMFLAGS9EEdlEPv(ptr noundef %35) #8
  br label %38

38:                                               ; preds = %37, %33
  br label %39

39:                                               ; preds = %38, %1
  ret void
}