; Function Attrs: mustprogress nounwind uwtable
define hidden void @_ZN23CPUInformationInterfaceD2Ev(ptr nocapture noundef nonnull readonly align 8 dereferenceable(8) %0) unnamed_addr #0 align 2 {
  %2 = load ptr, ptr %0, align 8
  %.not = icmp eq ptr %2, null
  br i1 %.not, label %18, label %3

3:                                                ; preds = %1
  %4 = getelementptr inbounds i8, ptr %2, i64 24
  %5 = load ptr, ptr %4, align 8
  %.not4 = icmp eq ptr %5, null
  br i1 %.not4, label %9, label %6

6:                                                ; preds = %3
  tail call void @_Z8FreeHeapPv(ptr noundef nonnull %5) #18
  %7 = load ptr, ptr %0, align 8
  %8 = getelementptr inbounds i8, ptr %7, i64 24
  store ptr null, ptr %8, align 8
  %.pre = load ptr, ptr %0, align 8
  br label %9

9:                                                ; preds = %6, %3
  %10 = phi ptr [ %.pre, %6 ], [ %2, %3 ]
  %11 = getelementptr inbounds i8, ptr %10, i64 16
  %12 = load ptr, ptr %11, align 8
  %.not5 = icmp eq ptr %12, null
  br i1 %.not5, label %.thread, label %13

13:                                               ; preds = %9
  tail call void @_Z8FreeHeapPv(ptr noundef nonnull %12) #18
  %14 = load ptr, ptr %0, align 8
  %15 = getelementptr inbounds i8, ptr %14, i64 16
  store ptr null, ptr %15, align 8
  %.pr = load ptr, ptr %0, align 8
  %16 = icmp eq ptr %.pr, null
  br i1 %16, label %18, label %.thread

.thread:                                          ; preds = %9, %13
  %17 = phi ptr [ %.pr, %13 ], [ %10, %9 ]
  tail call void @_Z8FreeHeapPv(ptr noundef nonnull %17) #18
  br label %18

18:                                               ; preds = %13, %.thread, %1
  ret void
}